#include <math.h>
#include <stdio.h>
#include <stdlib.h>
#include <string.h>
#include <iostream>
using namespace std;

/*
title: ??????
function: ?????????????: ?????????????1????????????2????? 
???????a???????????a??????
*/
int main()
{
    int f[20]={1,1},i,n,result[20],a;
    for (i=2;i<20;i++)    //calculate f series
    {
        f[i]=f[i-2]+f[i-1];
        }
    cin>>n;
    for (i=0;i<n;i++)
    {
        cin>>a;
        result[i]=f[a-1];
        }
    for (i=0;i<n;i++)
    {
        cout<<result[i]<<endl;
        }
}
